(lp1
(lp2
S'Greek'
p3
a(lp4
(lp5
S'\\alpha'
p6
aS'tab_icons/tab_00/0.png'
p7
aa(lp8
S'\\beta'
p9
aS'tab_icons/tab_00/1.png'
p10
aa(lp11
S'\\gamma'
p12
aS'tab_icons/tab_00/2.png'
p13
aa(lp14
S'\\delta'
p15
aS'tab_icons/tab_00/3.png'
p16
aa(lp17
S'\\epsilon'
p18
aS'tab_icons/tab_00/4.png'
p19
aa(lp20
S'\\zeta'
p21
aS'tab_icons/tab_00/5.png'
p22
aa(lp23
S'\\eta'
p24
aS'tab_icons/tab_00/6.png'
p25
aa(lp26
S'\\theta'
p27
aS'tab_icons/tab_00/7.png'
p28
aa(lp29
S'\\iota'
p30
aS'tab_icons/tab_00/8.png'
p31
aa(lp32
S'\\kappa'
p33
aS'tab_icons/tab_00/9.png'
p34
aa(lp35
S'\\lambda'
p36
aS'tab_icons/tab_00/10.png'
p37
aa(lp38
S'\\mu'
p39
aS'tab_icons/tab_00/11.png'
p40
aa(lp41
S'\\nu'
p42
aS'tab_icons/tab_00/12.png'
p43
aa(lp44
S'\\xi'
p45
aS'tab_icons/tab_00/13.png'
p46
aa(lp47
S'\\pi'
p48
aS'tab_icons/tab_00/14.png'
p49
aa(lp50
S'\\rho'
p51
aS'tab_icons/tab_00/15.png'
p52
aa(lp53
S'\\sigma'
p54
aS'tab_icons/tab_00/16.png'
p55
aa(lp56
S'\\tau'
p57
aS'tab_icons/tab_00/17.png'
p58
aa(lp59
S'\\upsilon'
p60
aS'tab_icons/tab_00/18.png'
p61
aa(lp62
S'\\phi'
p63
aS'tab_icons/tab_00/19.png'
p64
aa(lp65
S'\\chi'
p66
aS'tab_icons/tab_00/20.png'
p67
aa(lp68
S'\\psi'
p69
aS'tab_icons/tab_00/21.png'
p70
aa(lp71
S'\\omega'
p72
aS'tab_icons/tab_00/22.png'
p73
aa(lp74
S'\\Gamma'
p75
aS'tab_icons/tab_00/23.png'
p76
aa(lp77
S'\\Delta'
p78
aS'tab_icons/tab_00/24.png'
p79
aa(lp80
S'\\Theta'
p81
aS'tab_icons/tab_00/25.png'
p82
aa(lp83
S'\\Lambda'
p84
aS'tab_icons/tab_00/26.png'
p85
aa(lp86
S'\\Xi'
p87
aS'tab_icons/tab_00/27.png'
p88
aa(lp89
S'\\Pi'
p90
aS'tab_icons/tab_00/28.png'
p91
aa(lp92
S'\\Sigma'
p93
aS'tab_icons/tab_00/29.png'
p94
aa(lp95
S'\\Upsilon'
p96
aS'tab_icons/tab_00/30.png'
p97
aa(lp98
S'\\Phi'
p99
aS'tab_icons/tab_00/31.png'
p100
aa(lp101
S'\\Psi'
p102
aS'tab_icons/tab_00/32.png'
p103
aa(lp104
S'\\Omega'
p105
aS'tab_icons/tab_00/33.png'
p106
aaaa(lp107
S'Set symbol'
p108
a(lp109
(lp110
S'\\partial'
p111
aS'tab_icons/tab_01/0.png'
p112
aa(lp113
S'\\angle'
p114
aS'tab_icons/tab_01/1.png'
p115
aa(lp116
S'\\infty'
p117
aS'tab_icons/tab_01/2.png'
p118
aa(lp119
S'\\mathbb{P}'
p120
aS'tab_icons/tab_01/3.png'
p121
aa(lp122
S'\\mathbb{N}'
p123
aS'tab_icons/tab_01/4.png'
p124
aa(lp125
S'\\mathbb{R}'
p126
aS'tab_icons/tab_01/5.png'
p127
aa(lp128
S'\\mathbb{Z}'
p129
aS'tab_icons/tab_01/6.png'
p130
aa(lp131
S'\\mathbb{I}'
p132
aS'tab_icons/tab_01/7.png'
p133
aa(lp134
S'\\mathbb{Q}'
p135
aS'tab_icons/tab_01/8.png'
p136
aa(lp137
S'\\mathbb{C}'
p138
aS'tab_icons/tab_01/9.png'
p139
aa(lp140
S'\\therefore'
p141
aS'tab_icons/tab_01/10.png'
p142
aa(lp143
S'\\because'
p144
aS'tab_icons/tab_01/11.png'
p145
aa(lp146
S'\\imath'
p147
aS'tab_icons/tab_01/12.png'
p148
aa(lp149
S'\\jmath'
p150
aS'tab_icons/tab_01/13.png'
p151
aa(lp152
S'\\forall'
p153
aS'tab_icons/tab_01/14.png'
p154
aa(lp155
S'\\exists'
p156
aS'tab_icons/tab_01/15.png'
p157
aa(lp158
S'\\varnothing'
p159
aS'tab_icons/tab_01/16.png'
p160
aa(lp161
S'\\Re'
p162
aS'tab_icons/tab_01/17.png'
p163
aa(lp164
S'\\Im'
p165
aS'tab_icons/tab_01/18.png'
p166
aaaa(lp167
S'Set operator'
p168
a(lp169
(lp170
S'\\sqsubset'
p171
aS'tab_icons/tab_02/0.png'
p172
aa(lp173
S'\\sqsupset'
p174
aS'tab_icons/tab_02/1.png'
p175
aa(lp176
S'\\sqsubseteq'
p177
aS'tab_icons/tab_02/2.png'
p178
aa(lp179
S'\\sqsupseteq'
p180
aS'tab_icons/tab_02/3.png'
p181
aa(lp182
S'\\subset'
p183
aS'tab_icons/tab_02/4.png'
p184
aa(lp185
S'\\supset'
p186
aS'tab_icons/tab_02/5.png'
p187
aa(lp188
S'\\subseteq'
p189
aS'tab_icons/tab_02/6.png'
p190
aa(lp191
S'\\supseteq'
p192
aS'tab_icons/tab_02/7.png'
p193
aa(lp194
S'\\nsubseteq'
p195
aS'tab_icons/tab_02/8.png'
p196
aa(lp197
S'\\nsupseteq'
p198
aS'tab_icons/tab_02/9.png'
p199
aa(lp200
S'\\subseteqq'
p201
aS'tab_icons/tab_02/10.png'
p202
aa(lp203
S'\\supseteqq'
p204
aS'tab_icons/tab_02/11.png'
p205
aa(lp206
g195
aS'tab_icons/tab_02/12.png'
p207
aa(lp208
S'\\nsupseteqq'
p209
aS'tab_icons/tab_02/13.png'
p210
aa(lp211
S'\\in'
p212
aS'tab_icons/tab_02/14.png'
p213
aa(lp214
S'\\ni'
p215
aS'tab_icons/tab_02/15.png'
p216
aa(lp217
S'\\notin'
p218
aS'tab_icons/tab_02/16.png'
p219
aaaa(lp220
S'Math operator'
p221
a(lp222
(lp223
S'\\pm'
p224
aS'tab_icons/tab_03/0.png'
p225
aa(lp226
S'\\cap'
p227
aS'tab_icons/tab_03/1.png'
p228
aa(lp229
S'\\cup'
p230
aS'tab_icons/tab_03/2.png'
p231
aa(lp232
S'\\cdot'
p233
aS'tab_icons/tab_03/3.png'
p234
aa(lp235
S'\\mp'
p236
aS'tab_icons/tab_03/4.png'
p237
aa(lp238
S'\\Cap'
p239
aS'tab_icons/tab_03/5.png'
p240
aa(lp241
S'\\Cup'
p242
aS'tab_icons/tab_03/6.png'
p243
aa(lp244
S'\\uplus'
p245
aS'tab_icons/tab_03/7.png'
p246
aa(lp247
S'\\times'
p248
aS'tab_icons/tab_03/8.png'
p249
aa(lp250
S'\\sqcap'
p251
aS'tab_icons/tab_03/9.png'
p252
aa(lp253
S'\\sqcup'
p254
aS'tab_icons/tab_03/10.png'
p255
aa(lp256
S'\\bigsqcup'
p257
aS'tab_icons/tab_03/11.png'
p258
aa(lp259
S'\\ast'
p260
aS'tab_icons/tab_03/12.png'
p261
aa(lp262
S'\\wedge'
p263
aS'tab_icons/tab_03/13.png'
p264
aa(lp265
S'\\vee'
p266
aS'tab_icons/tab_03/14.png'
p267
aa(lp268
S'\\bigtriangleup'
p269
aS'tab_icons/tab_03/15.png'
p270
aa(lp271
S'\\div'
p272
aS'tab_icons/tab_03/16.png'
p273
aa(lp274
S'\\barwedge'
p275
aS'tab_icons/tab_03/17.png'
p276
aa(lp277
S'\\veebar'
p278
aS'tab_icons/tab_03/18.png'
p279
aa(lp280
S'\\bigtriangledown'
p281
aS'tab_icons/tab_03/19.png'
p282
aa(lp283
S'\\setminus'
p284
aS'tab_icons/tab_03/20.png'
p285
aa(lp286
S'\\triangleleft'
p287
aS'tab_icons/tab_03/21.png'
p288
aa(lp289
S'\\triangleright'
p290
aS'tab_icons/tab_03/22.png'
p291
aa(lp292
S'\\nabla'
p293
aS'tab_icons/tab_03/23.png'
p294
aa(lp295
S'\\star'
p296
aS'tab_icons/tab_03/24.png'
p297
aa(lp298
S'\\dotplus'
p299
aS'tab_icons/tab_03/25.png'
p300
aa(lp301
S'\\lozenge'
p302
aS'tab_icons/tab_03/26.png'
p303
aa(lp304
S'\\blacklozenge'
p305
aS'tab_icons/tab_03/27.png'
p306
aa(lp307
S'\\bigstar'
p308
aS'tab_icons/tab_03/28.png'
p309
aa(lp310
S'\\amalg'
p311
aS'tab_icons/tab_03/29.png'
p312
aa(lp313
S'\\circ'
p314
aS'tab_icons/tab_03/30.png'
p315
aa(lp316
S'\\bullet'
p317
aS'tab_icons/tab_03/31.png'
p318
aa(lp319
S'\\bigcirc'
p320
aS'tab_icons/tab_03/32.png'
p321
aa(lp322
S'\\dagger'
p323
aS'tab_icons/tab_03/33.png'
p324
aa(lp325
S'\\square'
p326
aS'tab_icons/tab_03/34.png'
p327
aa(lp328
S'\\blacksquare'
p329
aS'tab_icons/tab_03/35.png'
p330
aa(lp331
S'\\bigoplus'
p332
aS'tab_icons/tab_03/36.png'
p333
aa(lp334
S'\\ddagger'
p335
aS'tab_icons/tab_03/37.png'
p336
aa(lp337
S'\\triangle'
p338
aS'tab_icons/tab_03/38.png'
p339
aa(lp340
S'\\blacktriangle'
p341
aS'tab_icons/tab_03/39.png'
p342
aa(lp343
S'\\bigotimes'
p344
aS'tab_icons/tab_03/40.png'
p345
aa(lp346
S'\\wr'
p347
aS'tab_icons/tab_03/41.png'
p348
aa(lp349
S'\\triangledown'
p350
aS'tab_icons/tab_03/42.png'
p351
aa(lp352
S'\\blacktriangledown'
p353
aS'tab_icons/tab_03/43.png'
p354
aa(lp355
S'\\bigodot'
p356
aS'tab_icons/tab_03/44.png'
p357
aa(lp358
S'\\diamond'
p359
aS'tab_icons/tab_03/45.png'
p360
aa(lp361
S'\\ominus'
p362
aS'tab_icons/tab_03/46.png'
p363
aa(lp364
S'\\oplus'
p365
aS'tab_icons/tab_03/47.png'
p366
aa(lp367
S'\\circledcirc'
p368
aS'tab_icons/tab_03/48.png'
p369
aa(lp370
S'\\oslash'
p371
aS'tab_icons/tab_03/49.png'
p372
aa(lp373
S'\\otimes'
p374
aS'tab_icons/tab_03/50.png'
p375
aa(lp376
S'\\circledast'
p377
aS'tab_icons/tab_03/51.png'
p378
aa(lp379
S'\\circleddash'
p380
aS'tab_icons/tab_03/52.png'
p381
aa(lp382
S'\\odot'
p383
aS'tab_icons/tab_03/53.png'
p384
aa(lp385
S'\\log_{a}{b}'
p386
aS'tab_icons/tab_03/54.png'
p387
aa(lp388
S'\\lg_{a}{b}'
p389
aS'tab_icons/tab_03/55.png'
p390
aaaa(lp391
S'Text format'
p392
a(lp393
(lp394
S'\\mathbf{a}'
p395
aS'tab_icons/tab_04/0.png'
p396
aa(lp397
S'\\textup{a}'
p398
aS'tab_icons/tab_04/1.png'
p399
aa(lp400
S'\\textbf{a}'
p401
aS'tab_icons/tab_04/2.png'
p402
aa(lp403
S'\\mathit{a}'
p404
aS'tab_icons/tab_04/3.png'
p405
aa(lp406
S'\\textit{a}'
p407
aS'tab_icons/tab_04/4.png'
p408
aa(lp409
S'\\mathrm{a}'
p410
aS'tab_icons/tab_04/5.png'
p411
aa(lp412
S'\\textrm{a}'
p413
aS'tab_icons/tab_04/6.png'
p414
aa(lp415
S'\\mathfrak{a}'
p416
aS'tab_icons/tab_04/7.png'
p417
aa(lp418
S'\\textsl{a}'
p419
aS'tab_icons/tab_04/8.png'
p420
aa(lp421
S'\\mathbb{a}'
p422
aS'tab_icons/tab_04/9.png'
p423
aa(lp424
S'\\texttt{a}'
p425
aS'tab_icons/tab_04/10.png'
p426
aa(lp427
S'\\textsc{a}'
p428
aS'tab_icons/tab_04/11.png'
p429
aa(lp430
S'\\emph{a}'
p431
aS'tab_icons/tab_04/12.png'
p432
aaaa(lp433
S'Spacing'
p434
a(lp435
(lp436
S'a \\,b '
p437
aS'tab_icons/tab_05/0.png'
p438
aa(lp439
S'a \\: b'
p440
aS'tab_icons/tab_05/1.png'
p441
aa(lp442
S'a \\; b'
p443
aS'tab_icons/tab_05/2.png'
p444
aa(lp445
S'a \\! b'
p446
aS'tab_icons/tab_05/3.png'
p447
aaaa(lp448
S'Decoration'
p449
a(lp450
(lp451
S"{a}'"
p452
aS'tab_icons/tab_06/0.png'
p453
aa(lp454
S"{a}''"
p455
aS'tab_icons/tab_06/1.png'
p456
aa(lp457
S'\\dot{a}'
p458
aS'tab_icons/tab_06/2.png'
p459
aa(lp460
S'\\ddot{a}'
p461
aS'tab_icons/tab_06/3.png'
p462
aa(lp463
S'\\hat{a}'
p464
aS'tab_icons/tab_06/4.png'
p465
aa(lp466
S'\\check{a}'
p467
aS'tab_icons/tab_06/5.png'
p468
aa(lp469
S'\\grave{a}'
p470
aS'tab_icons/tab_06/6.png'
p471
aa(lp472
S'\\acute{a}'
p473
aS'tab_icons/tab_06/7.png'
p474
aa(lp475
S'\\tilde{a}'
p476
aS'tab_icons/tab_06/8.png'
p477
aa(lp478
S'\\breve{a}'
p479
aS'tab_icons/tab_06/9.png'
p480
aa(lp481
S'\\bar{a}'
p482
aS'tab_icons/tab_06/10.png'
p483
aa(lp484
S'\\vec{a}'
p485
aS'tab_icons/tab_06/11.png'
p486
aa(lp487
S'\\not{a}'
p488
aS'tab_icons/tab_06/12.png'
p489
aa(lp490
S'^{\\circ}'
p491
aS'tab_icons/tab_06/13.png'
p492
aa(lp493
S'\\widetilde{abc}'
p494
aS'tab_icons/tab_06/14.png'
p495
aa(lp496
S'\\widehat{abc}'
p497
aS'tab_icons/tab_06/15.png'
p498
aa(lp499
S'\\overleftarrow{abc}'
p500
aS'tab_icons/tab_06/16.png'
p501
aa(lp502
S'\\overrightarrow{abc}'
p503
aS'tab_icons/tab_06/17.png'
p504
aa(lp505
S'\\overline{abc}'
p506
aS'tab_icons/tab_06/18.png'
p507
aa(lp508
S'\\underline{abc}'
p509
aS'tab_icons/tab_06/19.png'
p510
aa(lp511
S'\\overbrace{abc}'
p512
aS'tab_icons/tab_06/20.png'
p513
aa(lp514
S'\\underbrace{abc}'
p515
aS'tab_icons/tab_06/21.png'
p516
aa(lp517
S'\\overset{a}{abc}'
p518
aS'tab_icons/tab_06/22.png'
p519
aa(lp520
S'\\underset{a}{abc}'
p521
aS'tab_icons/tab_06/23.png'
p522
aaaa(lp523
S'Arrow'
p524
a(lp525
(lp526
S'x \\mapsto x^2'
p527
aS'tab_icons/tab_07/0.png'
p528
aa(lp529
S'n \\to'
p530
aS'tab_icons/tab_07/1.png'
p531
aa(lp532
S'\\leftarrow'
p533
aS'tab_icons/tab_07/2.png'
p534
aa(lp535
S'\\rightarrow'
p536
aS'tab_icons/tab_07/3.png'
p537
aa(lp538
S'\\Leftarrow'
p539
aS'tab_icons/tab_07/4.png'
p540
aa(lp541
S'\\Rightarrow'
p542
aS'tab_icons/tab_07/5.png'
p543
aa(lp544
S'\\leftrightarrow'
p545
aS'tab_icons/tab_07/6.png'
p546
aa(lp547
S'\\Leftrightarrow'
p548
aS'tab_icons/tab_07/7.png'
p549
aa(lp550
S'\\leftharpoonup'
p551
aS'tab_icons/tab_07/8.png'
p552
aa(lp553
S'\\rightharpoonup'
p554
aS'tab_icons/tab_07/9.png'
p555
aa(lp556
S'\\leftharpoondown'
p557
aS'tab_icons/tab_07/10.png'
p558
aa(lp559
S'\\rightharpoondown'
p560
aS'tab_icons/tab_07/11.png'
p561
aa(lp562
S'\\leftrightharpoons'
p563
aS'tab_icons/tab_07/12.png'
p564
aa(lp565
S'\\rightleftharpoons'
p566
aS'tab_icons/tab_07/13.png'
p567
aa(lp568
S'\\xleftarrow[text]{long}'
p569
aS'tab_icons/tab_07/14.png'
p570
aa(lp571
S'\\xrightarrow[text]{long}'
p572
aS'tab_icons/tab_07/15.png'
p573
aa(lp574
S'\\overset{a}{\\leftarrow}'
p575
aS'tab_icons/tab_07/16.png'
p576
aa(lp577
S'\\overset{a}{\\rightarrow}'
p578
aS'tab_icons/tab_07/17.png'
p579
aa(lp580
S'\\underset{a}{\\leftarrow}'
p581
aS'tab_icons/tab_07/18.png'
p582
aa(lp583
S'\\underset{a}{\\rightarrow}'
p584
aS'tab_icons/tab_07/19.png'
p585
aaaa(lp586
S'Sub-super script'
p587
a(lp588
(lp589
S'x^{a}'
p590
aS'tab_icons/tab_08/0.png'
p591
aa(lp592
S'x_{a}'
p593
aS'tab_icons/tab_08/1.png'
p594
aa(lp595
S'x_{a}^{b}'
p596
aS'tab_icons/tab_08/2.png'
p597
aa(lp598
S'{x_{a}}^{b}'
p599
aS'tab_icons/tab_08/3.png'
p600
aa(lp601
S'_{a}^{b}\\textrm{C}'
p602
aS'tab_icons/tab_08/4.png'
p603
aaaa(lp604
S'Fraction'
p605
a(lp606
(lp607
S'\\frac{a}{b}'
p608
aS'tab_icons/tab_09/0.png'
p609
aa(lp610
S'\\tfrac{a}{b}'
p611
aS'tab_icons/tab_09/1.png'
p612
aa(lp613
S'\\frac{\\partial }{\\partial x}'
p614
aS'tab_icons/tab_09/2.png'
p615
aa(lp616
S'\\frac{\\partial^2 }{\\partial x^2}'
p617
aS'tab_icons/tab_09/3.png'
p618
aa(lp619
S'\\frac{\\mathrm{d} }{\\mathrm{d} x}'
p620
aS'tab_icons/tab_09/4.png'
p621
aaaa(lp622
S'Integration'
p623
a(lp624
(lp625
S'\\int dx'
p626
aS'tab_icons/tab_10/0.png'
p627
aa(lp628
S'\\int_{a}^{b} dx '
p629
aS'tab_icons/tab_10/1.png'
p630
aa(lp631
S'\\oint dx'
p632
aS'tab_icons/tab_10/2.png'
p633
aa(lp634
S'\\oint_{a}^{b}'
p635
aS'tab_icons/tab_10/3.png'
p636
aa(lp637
S'\\iint_{a}^{b}'
p638
aS'tab_icons/tab_10/4.png'
p639
aaaa(lp640
S'Cap/cup'
p641
a(lp642
(lp643
S'\\bigcap'
p644
aS'tab_icons/tab_11/0.png'
p645
aa(lp646
S'\\bigcap_{a}^{b}'
p647
aS'tab_icons/tab_11/1.png'
p648
aa(lp649
S'\\bigcup'
p650
aS'tab_icons/tab_11/2.png'
p651
aa(lp652
S'\\bigcup_{a}^{b}'
p653
aS'tab_icons/tab_11/3.png'
p654
aa(lp655
S'\\lim_{x \\to 0}'
p656
aS'tab_icons/tab_11/4.png'
p657
aaaa(lp658
S'Sum'
p659
a(lp660
(lp661
S'\\sum_{a}^{b}'
p662
aS'tab_icons/tab_12/0.png'
p663
aa(lp664
S'\\sqrt{x}'
p665
aS'tab_icons/tab_12/1.png'
p666
aa(lp667
S'\\sqrt[n]{x}'
p668
aS'tab_icons/tab_12/2.png'
p669
aa(lp670
S'\\prod'
p671
aS'tab_icons/tab_12/3.png'
p672
aa(lp673
S'\\prod_{a}^{b}'
p674
aS'tab_icons/tab_12/4.png'
p675
aa(lp676
S'\\coprod '
p677
aS'tab_icons/tab_12/5.png'
p678
aa(lp679
S'\\coprod_{a}^{b}'
p680
aS'tab_icons/tab_12/6.png'
p681
aaaa(lp682
S'Bracket'
p683
a(lp684
(lp685
S'\\left ( x \\right )'
p686
aS'tab_icons/tab_13/0.png'
p687
aa(lp688
S'\\left [ x \\right ]'
p689
aS'tab_icons/tab_13/1.png'
p690
aa(lp691
S'\\left \\{ x \\right \\}'
p692
aS'tab_icons/tab_13/2.png'
p693
aa(lp694
S'\\left | x \\right |'
p695
aS'tab_icons/tab_13/3.png'
p696
aa(lp697
S'\\left \\{ x \\right.'
p698
aS'tab_icons/tab_13/4.png'
p699
aa(lp700
S'\\left \\| x \\right \\|'
p701
aS'tab_icons/tab_13/5.png'
p702
aa(lp703
S'\\left \\langle x \\right \\rangle'
p704
aS'tab_icons/tab_13/6.png'
p705
aa(lp706
S'\\left \\lfloor x \\right \\rfloor'
p707
aS'tab_icons/tab_13/7.png'
p708
aa(lp709
S'\\left \\lceil x \\right \\rceil'
p710
aS'tab_icons/tab_13/8.png'
p711
aa(lp712
S'\\left. x \\right \\}'
p713
aS'tab_icons/tab_13/9.png'
p714
aaaa(lp715
S'Comparison'
p716
a(lp717
(lp718
S'<'
aS'tab_icons/tab_14/0.png'
p719
aa(lp720
S'>'
aS'tab_icons/tab_14/1.png'
p721
aa(lp722
S'='
aS'tab_icons/tab_14/2.png'
p723
aa(lp724
S'\\leq'
p725
aS'tab_icons/tab_14/3.png'
p726
aa(lp727
S'\\geq'
p728
aS'tab_icons/tab_14/4.png'
p729
aa(lp730
S'\\doteq'
p731
aS'tab_icons/tab_14/5.png'
p732
aa(lp733
S'\\leqslant'
p734
aS'tab_icons/tab_14/6.png'
p735
aa(lp736
S'\\geqslant'
p737
aS'tab_icons/tab_14/7.png'
p738
aa(lp739
S'\\equiv'
p740
aS'tab_icons/tab_14/8.png'
p741
aa(lp742
S'\\nless'
p743
aS'tab_icons/tab_14/9.png'
p744
aa(lp745
S'\\ngtr'
p746
aS'tab_icons/tab_14/10.png'
p747
aa(lp748
S'\\neq'
p749
aS'tab_icons/tab_14/11.png'
p750
aa(lp751
S'\\nleqslant'
p752
aS'tab_icons/tab_14/12.png'
p753
aa(lp754
S'\\ngeqslant'
p755
aS'tab_icons/tab_14/13.png'
p756
aa(lp757
S'\\not\\equiv'
p758
aS'tab_icons/tab_14/14.png'
p759
aa(lp760
S'\\prec'
p761
aS'tab_icons/tab_14/15.png'
p762
aa(lp763
S'\\succ'
p764
aS'tab_icons/tab_14/16.png'
p765
aa(lp766
S'\\preceq'
p767
aS'tab_icons/tab_14/17.png'
p768
aa(lp769
S'\\succeq'
p770
aS'tab_icons/tab_14/18.png'
p771
aa(lp772
S'\\sim'
p773
aS'tab_icons/tab_14/19.png'
p774
aa(lp775
S'\\ll'
p776
aS'tab_icons/tab_14/20.png'
p777
aa(lp778
S'\\gg'
p779
aS'tab_icons/tab_14/21.png'
p780
aa(lp781
S'\\approx'
p782
aS'tab_icons/tab_14/22.png'
p783
aa(lp784
S'\\vdash'
p785
aS'tab_icons/tab_14/23.png'
p786
aa(lp787
S'\\dashv'
p788
aS'tab_icons/tab_14/24.png'
p789
aa(lp790
S'\\simeq'
p791
aS'tab_icons/tab_14/25.png'
p792
aa(lp793
S'\\smile'
p794
aS'tab_icons/tab_14/26.png'
p795
aa(lp796
S'\\frown'
p797
aS'tab_icons/tab_14/27.png'
p798
aa(lp799
S'\\cong'
p800
aS'tab_icons/tab_14/28.png'
p801
aa(lp802
S'\\models'
p803
aS'tab_icons/tab_14/29.png'
p804
aa(lp805
S'\\perp'
p806
aS'tab_icons/tab_14/30.png'
p807
aa(lp808
S'\\asymp'
p809
aS'tab_icons/tab_14/31.png'
p810
aa(lp811
S'\\mid'
p812
aS'tab_icons/tab_14/32.png'
p813
aa(lp814
S'\\parallel'
p815
aS'tab_icons/tab_14/33.png'
p816
aa(lp817
S'\\propto'
p818
aS'tab_icons/tab_14/34.png'
p819
aa(lp820
S'\\bowtie'
p821
aS'tab_icons/tab_14/35.png'
p822
aa(lp823
S'\\Join'
p824
aS'tab_icons/tab_14/36.png'
p825
aa(lp826
g117
aS'tab_icons/tab_14/37.png'
p827
aaaa(lp828
S'Matrix'
p829
a(lp830
(lp831
S'\\left(\\begin{matrix}\na_{11} & a_{12} \\\\\na_{21} & a_{22}\n\\end{matrix}\\right.\n'
p832
aS'/home/guangzhi/codes/Latex_formula_editor-master/tab_icons/tab_matrix/01.png'
p833
aa(lp834
S'\\left[\\begin{matrix}\na_{11} & a_{12} \\\\\na_{21} & a_{22}\n\\end{matrix}\\right.\n'
p835
aS'/home/guangzhi/codes/Latex_formula_editor-master/tab_icons/tab_matrix/02.png'
p836
aa(lp837
S'\\left\\{\\begin{matrix}\na_{11} & a_{12} \\\\\na_{21} & a_{22}\n\\end{matrix}\\right.\n'
p838
aS'/home/guangzhi/codes/Latex_formula_editor-master/tab_icons/tab_matrix/03.png'
p839
aa(lp840
S'\\left<\\begin{matrix}\na_{11} & a_{12} \\\\\na_{21} & a_{22}\n\\end{matrix}\\right.\n'
p841
aS'/home/guangzhi/codes/Latex_formula_editor-master/tab_icons/tab_matrix/04.png'
p842
aa(lp843
S'\\left|\\begin{matrix}\na_{11} & a_{12} \\\\\na_{21} & a_{22}\n\\end{matrix}\\right.\n'
p844
aS'/home/guangzhi/codes/Latex_formula_editor-master/tab_icons/tab_matrix/05.png'
p845
aa(lp846
S'\\left.\\begin{matrix}\na_{11} & a_{12} \\\\\na_{21} & a_{22}\n\\end{matrix}\\right)\n'
p847
aS'/home/guangzhi/codes/Latex_formula_editor-master/tab_icons/tab_matrix/06.png'
p848
aa(lp849
S'\\left.\\begin{matrix}\na_{11} & a_{12} \\\\\na_{21} & a_{22}\n\\end{matrix}\\right]\n'
p850
aS'/home/guangzhi/codes/Latex_formula_editor-master/tab_icons/tab_matrix/07.png'
p851
aa(lp852
S'\\left.\\begin{matrix}\na_{11} & a_{12} \\\\\na_{21} & a_{22}\n\\end{matrix}\\right\\}\n'
p853
aS'/home/guangzhi/codes/Latex_formula_editor-master/tab_icons/tab_matrix/08.png'
p854
aa(lp855
S'\\left.\\begin{matrix}\na_{11} & a_{12} \\\\\na_{21} & a_{22}\n\\end{matrix}\\right>\n'
p856
aS'/home/guangzhi/codes/Latex_formula_editor-master/tab_icons/tab_matrix/09.png'
p857
aa(lp858
S'\\left.\\begin{matrix}\na_{11} & a_{12} \\\\\na_{21} & a_{22}\n\\end{matrix}\\right|\n'
p859
aS'/home/guangzhi/codes/Latex_formula_editor-master/tab_icons/tab_matrix/10.png'
p860
aa(lp861
S'\\begin{matrix}\na_{11} & a_{12} \\\\\na_{21} & a_{22}\n\\end{matrix}\n'
p862
aS'/home/guangzhi/codes/Latex_formula_editor-master/tab_icons/tab_matrix/11.png'
p863
aa(lp864
S'\\begin{bmatrix}\na_{11} & a_{12} \\\\\na_{21} & a_{22}\n\\end{bmatrix}\n'
p865
aS'/home/guangzhi/codes/Latex_formula_editor-master/tab_icons/tab_matrix/12.png'
p866
aa(lp867
S'\\begin{pmatrix}\na_{11} & a_{12} \\\\\na_{21} & a_{22}\n\\end{pmatrix}\n'
p868
aS'/home/guangzhi/codes/Latex_formula_editor-master/tab_icons/tab_matrix/13.png'
p869
aa(lp870
S'\\begin{vmatrix}\na_{11} & a_{12} \\\\\na_{21} & a_{22}\n\\end{vmatrix}\n'
p871
aS'/home/guangzhi/codes/Latex_formula_editor-master/tab_icons/tab_matrix/14.png'
p872
aa(lp873
S'\\begin{Bmatrix}\na_{11} & a_{12} \\\\\na_{21} & a_{22}\n\\end{Bmatrix}\n'
p874
aS'/home/guangzhi/codes/Latex_formula_editor-master/tab_icons/tab_matrix/15.png'
p875
aa(lp876
S'\\begin{Vmatrix}\na_{11} & a_{12} \\\\\na_{21} & a_{22}\n\\end{Vmatrix}\n'
p877
aS'/home/guangzhi/codes/Latex_formula_editor-master/tab_icons/tab_matrix/16.png'
p878
aa(lp879
S'\\begin{cases}\n y_0 & \\text{ if } x_0 \\\\\n y_1 & \\text{ if } x_1\n\\end{cases}\n'
p880
aS'/home/guangzhi/codes/Latex_formula_editor-master/tab_icons/tab_matrix/17.png'
p881
aaaa.